target datalayout = "e-m:e-p270:32:32-p271:32:32-p272:64:64-i64:64-i128:128-f80:128-n8:16:32:64-S128"
target triple = "x86_64-pc-linux-gnu"

%struct.asn1_string_st = type { i32, i32, ptr, i64 }

@.str.4 = private unnamed_addr constant [1 x i8] zeroinitializer, align 1
@.str.27 = private unnamed_addr constant [15 x i8] c"Bad time value\00", align 1
@mon = internal constant [12 x ptr] [ptr @.str.32, ptr @.str.33, ptr @.str.34, ptr @.str.35, ptr @.str.36, ptr @.str.37, ptr @.str.38, ptr @.str.39, ptr @.str.40, ptr @.str.41, ptr @.str.42, ptr @.str.43], align 16
@.str.29 = private unnamed_addr constant [5 x i8] c" GMT\00", align 1
@.str.30 = private unnamed_addr constant [27 x i8] c"%s %2d %02d:%02d:%02d %d%s\00", align 1

; Function Attrs: nounwind uwtable
define hidden i32 @ASN1_UTCTIME_print(ptr noundef %0, ptr noundef %1) #0 {
  %3 = alloca i32, align 4
  %4 = alloca ptr, align 8
  %5 = alloca ptr, align 8
  %6 = alloca ptr, align 8
  %7 = alloca i32, align 4
  %8 = alloca i32, align 4
  %9 = alloca i32, align 4
  %10 = alloca i32, align 4
  %11 = alloca i32, align 4
  %12 = alloca i32, align 4
  %13 = alloca i32, align 4
  %14 = alloca i32, align 4
  %15 = alloca i32, align 4
  store ptr %0, ptr %4, align 8, !tbaa !15
  store ptr %1, ptr %5, align 8, !tbaa !45
  call void @llvm.lifetime.start.p0(i64 8, ptr %6) #5
  call void @llvm.lifetime.start.p0(i64 4, ptr %7) #5
  store i32 0, ptr %7, align 4, !tbaa !17
  call void @llvm.lifetime.start.p0(i64 4, ptr %8) #5
  call void @llvm.lifetime.start.p0(i64 4, ptr %9) #5
  store i32 0, ptr %9, align 4, !tbaa !17
  call void @llvm.lifetime.start.p0(i64 4, ptr %10) #5
  store i32 0, ptr %10, align 4, !tbaa !17
  call void @llvm.lifetime.start.p0(i64 4, ptr %11) #5
  store i32 0, ptr %11, align 4, !tbaa !17
  call void @llvm.lifetime.start.p0(i64 4, ptr %12) #5
  store i32 0, ptr %12, align 4, !tbaa !17
  call void @llvm.lifetime.start.p0(i64 4, ptr %13) #5
  store i32 0, ptr %13, align 4, !tbaa !17
  call void @llvm.lifetime.start.p0(i64 4, ptr %14) #5
  store i32 0, ptr %14, align 4, !tbaa !17
  %16 = load ptr, ptr %5, align 8, !tbaa !45
  %17 = getelementptr inbounds nuw %struct.asn1_string_st, ptr %16, i32 0, i32 0
  %18 = load i32, ptr %17, align 8, !tbaa !46
  store i32 %18, ptr %8, align 4, !tbaa !17
  %19 = load ptr, ptr %5, align 8, !tbaa !45
  %20 = getelementptr inbounds nuw %struct.asn1_string_st, ptr %19, i32 0, i32 2
  %21 = load ptr, ptr %20, align 8, !tbaa !48
  store ptr %21, ptr %6, align 8, !tbaa !19
  %22 = load i32, ptr %8, align 4, !tbaa !17
  %23 = icmp slt i32 %22, 10
  br i1 %23, label %24, label %25

24:                                               ; preds = %2
  br label %195

25:                                               ; preds = %2
  %26 = load ptr, ptr %6, align 8, !tbaa !19
  %27 = load i32, ptr %8, align 4, !tbaa !17
  %28 = sub nsw i32 %27, 1
  %29 = sext i32 %28 to i64
  %30 = getelementptr inbounds i8, ptr %26, i64 %29
  %31 = load i8, ptr %30, align 1, !tbaa !21
  %32 = sext i8 %31 to i32
  %33 = icmp eq i32 %32, 90
  br i1 %33, label %34, label %35

34:                                               ; preds = %25
  store i32 1, ptr %7, align 4, !tbaa !17
  br label %35

35:                                               ; preds = %34, %25
  store i32 0, ptr %8, align 4, !tbaa !17
  br label %36

36:                                               ; preds = %57, %35
  %37 = load i32, ptr %8, align 4, !tbaa !17
  %38 = icmp slt i32 %37, 10
  br i1 %38, label %39, label %60

39:                                               ; preds = %36
  %40 = load ptr, ptr %6, align 8, !tbaa !19
  %41 = load i32, ptr %8, align 4, !tbaa !17
  %42 = sext i32 %41 to i64
  %43 = getelementptr inbounds i8, ptr %40, i64 %42
  %44 = load i8, ptr %43, align 1, !tbaa !21
  %45 = sext i8 %44 to i32
  %46 = icmp sgt i32 %45, 57
  br i1 %46, label %55, label %47

47:                                               ; preds = %39
  %48 = load ptr, ptr %6, align 8, !tbaa !19
  %49 = load i32, ptr %8, align 4, !tbaa !17
  %50 = sext i32 %49 to i64
  %51 = getelementptr inbounds i8, ptr %48, i64 %50
  %52 = load i8, ptr %51, align 1, !tbaa !21
  %53 = sext i8 %52 to i32
  %54 = icmp slt i32 %53, 48
  br i1 %54, label %55, label %56

55:                                               ; preds = %47, %39
  br label %195

56:                                               ; preds = %47
  br label %57

57:                                               ; preds = %56
  %58 = load i32, ptr %8, align 4, !tbaa !17
  %59 = add nsw i32 %58, 1
  store i32 %59, ptr %8, align 4, !tbaa !17
  br label %36, !llvm.loop !76

60:                                               ; preds = %36
  %61 = load ptr, ptr %6, align 8, !tbaa !19
  %62 = getelementptr inbounds i8, ptr %61, i64 0
  %63 = load i8, ptr %62, align 1, !tbaa !21
  %64 = sext i8 %63 to i32
  %65 = sub nsw i32 %64, 48
  %66 = mul nsw i32 %65, 10
  %67 = load ptr, ptr %6, align 8, !tbaa !19
  %68 = getelementptr inbounds i8, ptr %67, i64 1
  %69 = load i8, ptr %68, align 1, !tbaa !21
  %70 = sext i8 %69 to i32
  %71 = sub nsw i32 %70, 48
  %72 = add nsw i32 %66, %71
  store i32 %72, ptr %9, align 4, !tbaa !17
  %73 = load i32, ptr %9, align 4, !tbaa !17
  %74 = icmp slt i32 %73, 50
  br i1 %74, label %75, label %78

75:                                               ; preds = %60
  %76 = load i32, ptr %9, align 4, !tbaa !17
  %77 = add nsw i32 %76, 100
  store i32 %77, ptr %9, align 4, !tbaa !17
  br label %78

78:                                               ; preds = %75, %60
  %79 = load ptr, ptr %6, align 8, !tbaa !19
  %80 = getelementptr inbounds i8, ptr %79, i64 2
  %81 = load i8, ptr %80, align 1, !tbaa !21
  %82 = sext i8 %81 to i32
  %83 = sub nsw i32 %82, 48
  %84 = mul nsw i32 %83, 10
  %85 = load ptr, ptr %6, align 8, !tbaa !19
  %86 = getelementptr inbounds i8, ptr %85, i64 3
  %87 = load i8, ptr %86, align 1, !tbaa !21
  %88 = sext i8 %87 to i32
  %89 = sub nsw i32 %88, 48
  %90 = add nsw i32 %84, %89
  store i32 %90, ptr %10, align 4, !tbaa !17
  %91 = load i32, ptr %10, align 4, !tbaa !17
  %92 = icmp sgt i32 %91, 12
  br i1 %92, label %96, label %93

93:                                               ; preds = %78
  %94 = load i32, ptr %10, align 4, !tbaa !17
  %95 = icmp slt i32 %94, 1
  br i1 %95, label %96, label %97

96:                                               ; preds = %93, %78
  br label %195

97:                                               ; preds = %93
  %98 = load ptr, ptr %6, align 8, !tbaa !19
  %99 = getelementptr inbounds i8, ptr %98, i64 4
  %100 = load i8, ptr %99, align 1, !tbaa !21
  %101 = sext i8 %100 to i32
  %102 = sub nsw i32 %101, 48
  %103 = mul nsw i32 %102, 10
  %104 = load ptr, ptr %6, align 8, !tbaa !19
  %105 = getelementptr inbounds i8, ptr %104, i64 5
  %106 = load i8, ptr %105, align 1, !tbaa !21
  %107 = sext i8 %106 to i32
  %108 = sub nsw i32 %107, 48
  %109 = add nsw i32 %103, %108
  store i32 %109, ptr %11, align 4, !tbaa !17
  %110 = load ptr, ptr %6, align 8, !tbaa !19
  %111 = getelementptr inbounds i8, ptr %110, i64 6
  %112 = load i8, ptr %111, align 1, !tbaa !21
  %113 = sext i8 %112 to i32
  %114 = sub nsw i32 %113, 48
  %115 = mul nsw i32 %114, 10
  %116 = load ptr, ptr %6, align 8, !tbaa !19
  %117 = getelementptr inbounds i8, ptr %116, i64 7
  %118 = load i8, ptr %117, align 1, !tbaa !21
  %119 = sext i8 %118 to i32
  %120 = sub nsw i32 %119, 48
  %121 = add nsw i32 %115, %120
  store i32 %121, ptr %12, align 4, !tbaa !17
  %122 = load ptr, ptr %6, align 8, !tbaa !19
  %123 = getelementptr inbounds i8, ptr %122, i64 8
  %124 = load i8, ptr %123, align 1, !tbaa !21
  %125 = sext i8 %124 to i32
  %126 = sub nsw i32 %125, 48
  %127 = mul nsw i32 %126, 10
  %128 = load ptr, ptr %6, align 8, !tbaa !19
  %129 = getelementptr inbounds i8, ptr %128, i64 9
  %130 = load i8, ptr %129, align 1, !tbaa !21
  %131 = sext i8 %130 to i32
  %132 = sub nsw i32 %131, 48
  %133 = add nsw i32 %127, %132
  store i32 %133, ptr %13, align 4, !tbaa !17
  %134 = load ptr, ptr %5, align 8, !tbaa !45
  %135 = getelementptr inbounds nuw %struct.asn1_string_st, ptr %134, i32 0, i32 0
  %136 = load i32, ptr %135, align 8, !tbaa !46
  %137 = icmp sge i32 %136, 12
  br i1 %137, label %138, label %175

138:                                              ; preds = %97
  %139 = load ptr, ptr %6, align 8, !tbaa !19
  %140 = getelementptr inbounds i8, ptr %139, i64 10
  %141 = load i8, ptr %140, align 1, !tbaa !21
  %142 = sext i8 %141 to i32
  %143 = icmp sge i32 %142, 48
  br i1 %143, label %144, label %175

144:                                              ; preds = %138
  %145 = load ptr, ptr %6, align 8, !tbaa !19
  %146 = getelementptr inbounds i8, ptr %145, i64 10
  %147 = load i8, ptr %146, align 1, !tbaa !21
  %148 = sext i8 %147 to i32
  %149 = icmp sle i32 %148, 57
  br i1 %149, label %150, label %175

150:                                              ; preds = %144
  %151 = load ptr, ptr %6, align 8, !tbaa !19
  %152 = getelementptr inbounds i8, ptr %151, i64 11
  %153 = load i8, ptr %152, align 1, !tbaa !21
  %154 = sext i8 %153 to i32
  %155 = icmp sge i32 %154, 48
  br i1 %155, label %156, label %175

156:                                              ; preds = %150
  %157 = load ptr, ptr %6, align 8, !tbaa !19
  %158 = getelementptr inbounds i8, ptr %157, i64 11
  %159 = load i8, ptr %158, align 1, !tbaa !21
  %160 = sext i8 %159 to i32
  %161 = icmp sle i32 %160, 57
  br i1 %161, label %162, label %175

162:                                              ; preds = %156
  %163 = load ptr, ptr %6, align 8, !tbaa !19
  %164 = getelementptr inbounds i8, ptr %163, i64 10
  %165 = load i8, ptr %164, align 1, !tbaa !21
  %166 = sext i8 %165 to i32
  %167 = sub nsw i32 %166, 48
  %168 = mul nsw i32 %167, 10
  %169 = load ptr, ptr %6, align 8, !tbaa !19
  %170 = getelementptr inbounds i8, ptr %169, i64 11
  %171 = load i8, ptr %170, align 1, !tbaa !21
  %172 = sext i8 %171 to i32
  %173 = sub nsw i32 %172, 48
  %174 = add nsw i32 %168, %173
  store i32 %174, ptr %14, align 4, !tbaa !17
  br label %175

175:                                              ; preds = %162, %156, %150, %144, %138, %97
  %176 = load ptr, ptr %4, align 8, !tbaa !15
  %177 = load i32, ptr %10, align 4, !tbaa !17
  %178 = sub nsw i32 %177, 1
  %179 = sext i32 %178 to i64
  %180 = getelementptr inbounds [12 x ptr], ptr @mon, i64 0, i64 %179
  %181 = load ptr, ptr %180, align 8, !tbaa !19
  %182 = load i32, ptr %11, align 4, !tbaa !17
  %183 = load i32, ptr %12, align 4, !tbaa !17
  %184 = load i32, ptr %13, align 4, !tbaa !17
  %185 = load i32, ptr %14, align 4, !tbaa !17
  %186 = load i32, ptr %9, align 4, !tbaa !17
  %187 = add nsw i32 %186, 1900
  %188 = load i32, ptr %7, align 4, !tbaa !17
  %189 = icmp ne i32 %188, 0
  %190 = select i1 %189, ptr @.str.29, ptr @.str.4
  %191 = call i32 (ptr, ptr, ...) @BIO_printf(ptr noundef %176, ptr noundef @.str.30, ptr noundef %181, i32 noundef %182, i32 noundef %183, i32 noundef %184, i32 noundef %185, i32 noundef %187, ptr noundef %190)
  %192 = icmp sle i32 %191, 0
  br i1 %192, label %193, label %194

193:                                              ; preds = %175
  store i32 0, ptr %3, align 4
  store i32 1, ptr %15, align 4
  br label %198

194:                                              ; preds = %175
  store i32 1, ptr %3, align 4
  store i32 1, ptr %15, align 4
  br label %198

195:                                              ; preds = %96, %55, %24
  %196 = load ptr, ptr %4, align 8, !tbaa !15
  %197 = call i32 @BIO_write(ptr noundef %196, ptr noundef @.str.27, i32 noundef 14)
  store i32 0, ptr %3, align 4
  store i32 1, ptr %15, align 4
  br label %198

198:                                              ; preds = %195, %194, %193
  call void @llvm.lifetime.end.p0(i64 4, ptr %14) #5
  call void @llvm.lifetime.end.p0(i64 4, ptr %13) #5
  call void @llvm.lifetime.end.p0(i64 4, ptr %12) #5
  call void @llvm.lifetime.end.p0(i64 4, ptr %11) #5
  call void @llvm.lifetime.end.p0(i64 4, ptr %10) #5
  call void @llvm.lifetime.end.p0(i64 4, ptr %9) #5
  call void @llvm.lifetime.end.p0(i64 4, ptr %8) #5
  call void @llvm.lifetime.end.p0(i64 4, ptr %7) #5
  call void @llvm.lifetime.end.p0(i64 8, ptr %6) #5
  %199 = load i32, ptr %3, align 4
  ret i32 %199
}