; Function Attrs: nounwind uwtable
define hidden range(i32 0, 2) i32 @ASN1_UTCTIME_print(ptr noundef %0, ptr noundef readonly captures(none) %1) local_unnamed_addr #0 {
  %3 = load i32, ptr %1, align 8, !tbaa !32
  %4 = getelementptr inbounds nuw i8, ptr %1, i64 8
  %5 = load ptr, ptr %4, align 8, !tbaa !34
  %6 = icmp slt i32 %3, 10
  br i1 %6, label %.loopexit, label %7

7:                                                ; preds = %2
  %8 = zext nneg i32 %3 to i64
  %9 = getelementptr i8, ptr %5, i64 %8
  %10 = getelementptr i8, ptr %9, i64 -1
  %11 = load i8, ptr %10, align 1, !tbaa !35
  %.not = icmp eq i8 %11, 90
  br label %13

12:                                               ; preds = %13
  %indvars.iv.next = add nuw nsw i64 %indvars.iv, 1
  %exitcond.not = icmp eq i64 %indvars.iv.next, 10
  br i1 %exitcond.not, label %17, label %13, !llvm.loop !64

13:                                               ; preds = %7, %12
  %indvars.iv = phi i64 [ 0, %7 ], [ %indvars.iv.next, %12 ]
  %14 = getelementptr inbounds nuw i8, ptr %5, i64 %indvars.iv
  %15 = load i8, ptr %14, align 1, !tbaa !35
  %16 = add i8 %15, -58
  %or.cond53 = icmp ult i8 %16, -10
  br i1 %or.cond53, label %.loopexit, label %12

17:                                               ; preds = %12
  %18 = load i8, ptr %5, align 1, !tbaa !35
  %19 = sext i8 %18 to i32
  %20 = mul nsw i32 %19, 10
  %21 = getelementptr inbounds nuw i8, ptr %5, i64 1
  %22 = load i8, ptr %21, align 1, !tbaa !35
  %23 = sext i8 %22 to i32
  %24 = add nsw i32 %20, %23
  %25 = icmp slt i32 %24, 578
  %spec.select.v = select i1 %25, i32 -428, i32 -528
  %26 = getelementptr inbounds nuw i8, ptr %5, i64 2
  %27 = load i8, ptr %26, align 1, !tbaa !35
  %28 = sext i8 %27 to i32
  %29 = mul nsw i32 %28, 10
  %30 = getelementptr inbounds nuw i8, ptr %5, i64 3
  %31 = load i8, ptr %30, align 1, !tbaa !35
  %32 = sext i8 %31 to i32
  %33 = add nsw i32 %29, %32
  %34 = add nsw i32 %33, -541
  %or.cond = icmp ult i32 %34, -12
  br i1 %or.cond, label %.loopexit, label %35

35:                                               ; preds = %17
  %36 = getelementptr inbounds nuw i8, ptr %5, i64 4
  %37 = load i8, ptr %36, align 1, !tbaa !35
  %38 = sext i8 %37 to i32
  %39 = mul nsw i32 %38, 10
  %40 = getelementptr inbounds nuw i8, ptr %5, i64 5
  %41 = load i8, ptr %40, align 1, !tbaa !35
  %42 = sext i8 %41 to i32
  %43 = add nsw i32 %42, -528
  %44 = add nsw i32 %43, %39
  %45 = getelementptr inbounds nuw i8, ptr %5, i64 6
  %46 = load i8, ptr %45, align 1, !tbaa !35
  %47 = sext i8 %46 to i32
  %48 = mul nsw i32 %47, 10
  %49 = getelementptr inbounds nuw i8, ptr %5, i64 7
  %50 = load i8, ptr %49, align 1, !tbaa !35
  %51 = sext i8 %50 to i32
  %52 = add nsw i32 %51, -528
  %53 = add nsw i32 %52, %48
  %54 = getelementptr inbounds nuw i8, ptr %5, i64 8
  %55 = load i8, ptr %54, align 1, !tbaa !35
  %56 = sext i8 %55 to i32
  %57 = mul nsw i32 %56, 10
  %58 = getelementptr inbounds nuw i8, ptr %5, i64 9
  %59 = load i8, ptr %58, align 1, !tbaa !35
  %60 = sext i8 %59 to i32
  %61 = add nsw i32 %60, -528
  %62 = add nsw i32 %61, %57
  %63 = icmp sgt i32 %3, 11
  br i1 %63, label %64, label %77

64:                                               ; preds = %35
  %65 = getelementptr inbounds nuw i8, ptr %5, i64 10
  %66 = load i8, ptr %65, align 1, !tbaa !35
  %67 = add i8 %66, -48
  %or.cond54 = icmp ult i8 %67, 10
  br i1 %or.cond54, label %68, label %77

68:                                               ; preds = %64
  %69 = getelementptr inbounds nuw i8, ptr %5, i64 11
  %70 = load i8, ptr %69, align 1, !tbaa !35
  %71 = add i8 %70, -48
  %or.cond55 = icmp ult i8 %71, 10
  br i1 %or.cond55, label %72, label %77

72:                                               ; preds = %68
  %73 = mul i8 %66, 10
  %narrow56 = add nsw i8 %73, 32
  %74 = zext nneg i8 %narrow56 to i32
  %75 = zext nneg i8 %71 to i32
  %76 = add nuw nsw i32 %75, %74
  br label %77

77:                                               ; preds = %72, %68, %64, %35
  %.0 = phi i32 [ %76, %72 ], [ 0, %68 ], [ 0, %64 ], [ 0, %35 ]
  %78 = add nsw i32 %33, -529
  %79 = zext nneg i32 %78 to i64
  %80 = getelementptr inbounds nuw [12 x ptr], ptr @mon, i64 0, i64 %79
  %81 = load ptr, ptr %80, align 8, !tbaa !59
  %spec.select = add nsw i32 %24, 1900
  %82 = add nsw i32 %spec.select, %spec.select.v
  %83 = select i1 %.not, ptr @.str.29, ptr @.str.4
  %84 = tail call i32 (ptr, ptr, ...) @BIO_printf(ptr noundef %0, ptr noundef nonnull @.str.30, ptr noundef %81, i32 noundef %44, i32 noundef %53, i32 noundef %62, i32 noundef %.0, i32 noundef %82, ptr noundef nonnull %83) #5
  %85 = icmp sgt i32 %84, 0
  %. = zext i1 %85 to i32
  br label %87

.loopexit:                                        ; preds = %13, %17, %2
  %86 = tail call i32 @BIO_write(ptr noundef %0, ptr noundef nonnull @.str.27, i32 noundef 14) #5
  br label %87

87:                                               ; preds = %77, %.loopexit
  %.045 = phi i32 [ 0, %.loopexit ], [ %., %77 ]
  ret i32 %.045
}